target datalayout = "e-m:e-p270:32:32-p271:32:32-p272:64:64-i64:64-i128:128-f80:128-n8:16:32:64-S128"
target triple = "x86_64-pc-linux-gnu"

%struct.mbedtls_cipher_info_t = type { i32, i32, i32, ptr, i32, i32, i32, ptr }
%struct.mbedtls_cipher_base_t = type { i32, ptr, ptr, ptr, ptr, ptr }
%struct.mbedtls_cipher_context_t = type { ptr, i32, i32, [16 x i8], i64, [16 x i8], i64, ptr }

; Function Attrs: inlinehint mustprogress nounwind uwtable
define internal noundef i32 @_ZL29mbedtls_cipher_get_block_sizePK24mbedtls_cipher_context_t(ptr noundef %0) #7 {
  %2 = alloca i32, align 4
  %3 = alloca ptr, align 8
  store ptr %0, ptr %3, align 8, !tbaa !36
  br label %4

4:                                                ; preds = %1
  br label %5

5:                                                ; preds = %4
  %6 = load ptr, ptr %3, align 8, !tbaa !36
  %7 = getelementptr inbounds nuw %struct.mbedtls_cipher_context_t, ptr %6, i32 0, i32 0
  %8 = load ptr, ptr %7, align 8, !tbaa !42
  %9 = icmp eq ptr %8, null
  br i1 %9, label %10, label %11

10:                                               ; preds = %5
  store i32 0, ptr %2, align 4
  br label %17

11:                                               ; preds = %5
  %12 = load ptr, ptr %3, align 8, !tbaa !36
  %13 = getelementptr inbounds nuw %struct.mbedtls_cipher_context_t, ptr %12, i32 0, i32 0
  %14 = load ptr, ptr %13, align 8, !tbaa !42
  %15 = getelementptr inbounds nuw %struct.mbedtls_cipher_info_t, ptr %14, i32 0, i32 6
  %16 = load i32, ptr %15, align 8, !tbaa !59
  store i32 %16, ptr %2, align 4
  br label %17

17:                                               ; preds = %11, %10
  %18 = load i32, ptr %2, align 4
  ret i32 %18
}

; Function Attrs: mustprogress uwtable
define hidden i32 @mbedtls_cipher_update(ptr noundef %0, ptr noundef %1, i64 noundef %2, ptr noundef %3, ptr noundef %4) #4 {
  %6 = alloca i32, align 4
  %7 = alloca ptr, align 8
  %8 = alloca ptr, align 8
  %9 = alloca i64, align 8
  %10 = alloca ptr, align 8
  %11 = alloca ptr, align 8
  %12 = alloca i32, align 4
  %13 = alloca i64, align 8
  %14 = alloca i32, align 4
  store ptr %0, ptr %7, align 8, !tbaa !36
  store ptr %1, ptr %8, align 8, !tbaa !20
  store i64 %2, ptr %9, align 8, !tbaa !52
  store ptr %3, ptr %10, align 8, !tbaa !20
  store ptr %4, ptr %11, align 8, !tbaa !56
  call void @llvm.lifetime.start.p0(i64 4, ptr %12) #8
  store i32 -110, ptr %12, align 4, !tbaa !3
  call void @llvm.lifetime.start.p0(i64 8, ptr %13) #8
  br label %15

15:                                               ; preds = %5
  br label %16

16:                                               ; preds = %15
  br label %17

17:                                               ; preds = %16
  br label %18

18:                                               ; preds = %17
  br label %19

19:                                               ; preds = %18
  br label %20

20:                                               ; preds = %19
  br label %21

21:                                               ; preds = %20
  br label %22

22:                                               ; preds = %21
  br label %23

23:                                               ; preds = %22
  br label %24

24:                                               ; preds = %23
  br label %25

25:                                               ; preds = %24
  br label %26

26:                                               ; preds = %25
  %27 = load ptr, ptr %7, align 8, !tbaa !36
  %28 = getelementptr inbounds nuw %struct.mbedtls_cipher_context_t, ptr %27, i32 0, i32 0
  %29 = load ptr, ptr %28, align 8, !tbaa !42
  %30 = icmp eq ptr %29, null
  br i1 %30, label %31, label %32

31:                                               ; preds = %26
  store i32 -24832, ptr %6, align 4
  store i32 1, ptr %14, align 4
  br label %108

32:                                               ; preds = %26
  %33 = load ptr, ptr %11, align 8, !tbaa !56
  store i64 0, ptr %33, align 8, !tbaa !52
  %34 = load ptr, ptr %7, align 8, !tbaa !36
  %35 = call noundef i32 @_ZL29mbedtls_cipher_get_block_sizePK24mbedtls_cipher_context_t(ptr noundef %34)
  %36 = zext i32 %35 to i64
  store i64 %36, ptr %13, align 8, !tbaa !52
  %37 = load i64, ptr %13, align 8, !tbaa !52
  %38 = icmp eq i64 0, %37
  br i1 %38, label %39, label %40

39:                                               ; preds = %32
  store i32 -25472, ptr %6, align 4
  store i32 1, ptr %14, align 4
  br label %108

40:                                               ; preds = %32
  %41 = load ptr, ptr %7, align 8, !tbaa !36
  %42 = getelementptr inbounds nuw %struct.mbedtls_cipher_context_t, ptr %41, i32 0, i32 0
  %43 = load ptr, ptr %42, align 8, !tbaa !42
  %44 = getelementptr inbounds nuw %struct.mbedtls_cipher_info_t, ptr %43, i32 0, i32 1
  %45 = load i32, ptr %44, align 4, !tbaa !34
  %46 = icmp eq i32 %45, 1
  br i1 %46, label %47, label %75

47:                                               ; preds = %40
  %48 = load i64, ptr %9, align 8, !tbaa !52
  %49 = load i64, ptr %13, align 8, !tbaa !52
  %50 = icmp ne i64 %48, %49
  br i1 %50, label %51, label %52

51:                                               ; preds = %47
  store i32 -25216, ptr %6, align 4
  store i32 1, ptr %14, align 4
  br label %108

52:                                               ; preds = %47
  %53 = load i64, ptr %9, align 8, !tbaa !52
  %54 = load ptr, ptr %11, align 8, !tbaa !56
  store i64 %53, ptr %54, align 8, !tbaa !52
  %55 = load ptr, ptr %7, align 8, !tbaa !36
  %56 = getelementptr inbounds nuw %struct.mbedtls_cipher_context_t, ptr %55, i32 0, i32 0
  %57 = load ptr, ptr %56, align 8, !tbaa !42
  %58 = getelementptr inbounds nuw %struct.mbedtls_cipher_info_t, ptr %57, i32 0, i32 7
  %59 = load ptr, ptr %58, align 8, !tbaa !30
  %60 = getelementptr inbounds nuw %struct.mbedtls_cipher_base_t, ptr %59, i32 0, i32 1
  %61 = load ptr, ptr %60, align 8, !tbaa !58
  %62 = load ptr, ptr %7, align 8, !tbaa !36
  %63 = getelementptr inbounds nuw %struct.mbedtls_cipher_context_t, ptr %62, i32 0, i32 7
  %64 = load ptr, ptr %63, align 8, !tbaa !38
  %65 = load ptr, ptr %7, align 8, !tbaa !36
  %66 = getelementptr inbounds nuw %struct.mbedtls_cipher_context_t, ptr %65, i32 0, i32 2
  %67 = load i32, ptr %66, align 4, !tbaa !49
  %68 = load ptr, ptr %8, align 8, !tbaa !20
  %69 = load ptr, ptr %10, align 8, !tbaa !20
  %70 = call noundef i32 %61(ptr noundef %64, i32 noundef %67, ptr noundef %68, ptr noundef %69)
  store i32 %70, ptr %12, align 4, !tbaa !3
  %71 = icmp ne i32 0, %70
  br i1 %71, label %72, label %74

72:                                               ; preds = %52
  %73 = load i32, ptr %12, align 4, !tbaa !3
  store i32 %73, ptr %6, align 4
  store i32 1, ptr %14, align 4
  br label %108

74:                                               ; preds = %52
  store i32 0, ptr %6, align 4
  store i32 1, ptr %14, align 4
  br label %108

75:                                               ; preds = %40
  %76 = load ptr, ptr %7, align 8, !tbaa !36
  %77 = getelementptr inbounds nuw %struct.mbedtls_cipher_context_t, ptr %76, i32 0, i32 0
  %78 = load ptr, ptr %77, align 8, !tbaa !42
  %79 = getelementptr inbounds nuw %struct.mbedtls_cipher_info_t, ptr %78, i32 0, i32 1
  %80 = load i32, ptr %79, align 4, !tbaa !34
  %81 = icmp eq i32 %80, 6
  br i1 %81, label %82, label %92

82:                                               ; preds = %75
  %83 = load ptr, ptr %7, align 8, !tbaa !36
  %84 = getelementptr inbounds nuw %struct.mbedtls_cipher_context_t, ptr %83, i32 0, i32 7
  %85 = load ptr, ptr %84, align 8, !tbaa !38
  %86 = load ptr, ptr %8, align 8, !tbaa !20
  %87 = load i64, ptr %9, align 8, !tbaa !52
  %88 = load ptr, ptr %10, align 8, !tbaa !20
  %89 = load i64, ptr %9, align 8, !tbaa !52
  %90 = load ptr, ptr %11, align 8, !tbaa !56
  %91 = call i32 @mbedtls_gcm_update(ptr noundef %85, ptr noundef %86, i64 noundef %87, ptr noundef %88, i64 noundef %89, ptr noundef %90)
  store i32 %91, ptr %6, align 4
  store i32 1, ptr %14, align 4
  br label %108

92:                                               ; preds = %75
  %93 = load ptr, ptr %8, align 8, !tbaa !20
  %94 = load ptr, ptr %10, align 8, !tbaa !20
  %95 = icmp eq ptr %93, %94
  br i1 %95, label %96, label %107

96:                                               ; preds = %92
  %97 = load ptr, ptr %7, align 8, !tbaa !36
  %98 = getelementptr inbounds nuw %struct.mbedtls_cipher_context_t, ptr %97, i32 0, i32 4
  %99 = load i64, ptr %98, align 8, !tbaa !55
  %100 = icmp ne i64 %99, 0
  br i1 %100, label %106, label %101

101:                                              ; preds = %96
  %102 = load i64, ptr %9, align 8, !tbaa !52
  %103 = load i64, ptr %13, align 8, !tbaa !52
  %104 = urem i64 %102, %103
  %105 = icmp ne i64 %104, 0
  br i1 %105, label %106, label %107

106:                                              ; preds = %101, %96
  store i32 -24832, ptr %6, align 4
  store i32 1, ptr %14, align 4
  br label %108

107:                                              ; preds = %101, %92
  store i32 -24704, ptr %6, align 4
  store i32 1, ptr %14, align 4
  br label %108

108:                                              ; preds = %107, %106, %82, %74, %72, %51, %39, %31
  call void @llvm.lifetime.end.p0(i64 8, ptr %13) #8
  call void @llvm.lifetime.end.p0(i64 4, ptr %12) #8
  %109 = load i32, ptr %6, align 4
  ret i32 %109
}