; Function Attrs: mustprogress uwtable
define hidden i32 @mbedtls_cipher_update(ptr noundef readonly captures(none) %0, ptr noundef %1, i64 noundef %2, ptr noundef %3, ptr noundef %4) local_unnamed_addr #8 {
  %6 = load ptr, ptr %0, align 8, !tbaa !33
  %7 = icmp eq ptr %6, null
  br i1 %7, label %38, label %_ZL29mbedtls_cipher_get_block_sizePK24mbedtls_cipher_context_t.exit

_ZL29mbedtls_cipher_get_block_sizePK24mbedtls_cipher_context_t.exit: ; preds = %5
  store i64 0, ptr %4, align 8, !tbaa !43
  %8 = getelementptr inbounds nuw i8, ptr %6, i64 32
  %9 = load i32, ptr %8, align 8, !tbaa !44
  %10 = zext i32 %9 to i64
  %11 = icmp eq i32 %9, 0
  br i1 %11, label %38, label %12

12:                                               ; preds = %_ZL29mbedtls_cipher_get_block_sizePK24mbedtls_cipher_context_t.exit
  %13 = getelementptr inbounds nuw i8, ptr %6, i64 4
  %14 = load i32, ptr %13, align 4, !tbaa !27
  switch i32 %14, label %30 [
    i32 1, label %15
    i32 6, label %26
  ]

15:                                               ; preds = %12
  %.not32 = icmp eq i64 %2, %10
  br i1 %.not32, label %16, label %38

16:                                               ; preds = %15
  store i64 %2, ptr %4, align 8, !tbaa !43
  %17 = getelementptr inbounds nuw i8, ptr %6, i64 40
  %18 = load ptr, ptr %17, align 8, !tbaa !22
  %19 = getelementptr inbounds nuw i8, ptr %18, i64 8
  %20 = load ptr, ptr %19, align 8, !tbaa !45
  %21 = getelementptr inbounds nuw i8, ptr %0, i64 64
  %22 = load ptr, ptr %21, align 8, !tbaa !29
  %23 = getelementptr inbounds nuw i8, ptr %0, i64 12
  %24 = load i32, ptr %23, align 4, !tbaa !38
  %25 = tail call noundef i32 %20(ptr noundef %22, i32 noundef %24, ptr noundef %1, ptr noundef %3)
  br label %38

26:                                               ; preds = %12
  %27 = getelementptr inbounds nuw i8, ptr %0, i64 64
  %28 = load ptr, ptr %27, align 8, !tbaa !29
  %29 = tail call i32 @mbedtls_gcm_update(ptr noundef %28, ptr noundef %1, i64 noundef %2, ptr noundef %3, i64 noundef %2, ptr noundef nonnull %4)
  br label %38

30:                                               ; preds = %12
  %31 = icmp eq ptr %1, %3
  br i1 %31, label %32, label %37

32:                                               ; preds = %30
  %33 = getelementptr inbounds nuw i8, ptr %0, i64 32
  %34 = load i64, ptr %33, align 8, !tbaa !42
  %.not = icmp eq i64 %34, 0
  br i1 %.not, label %35, label %38

35:                                               ; preds = %32
  %36 = urem i64 %2, %10
  %.not31 = icmp eq i64 %36, 0
  br i1 %.not31, label %37, label %38

37:                                               ; preds = %35, %30
  br label %38

38:                                               ; preds = %32, %35, %16, %15, %_ZL29mbedtls_cipher_get_block_sizePK24mbedtls_cipher_context_t.exit, %5, %37, %26
  %.0 = phi i32 [ %29, %26 ], [ -24704, %37 ], [ -24832, %5 ], [ -25472, %_ZL29mbedtls_cipher_get_block_sizePK24mbedtls_cipher_context_t.exit ], [ -25216, %15 ], [ %25, %16 ], [ -24832, %35 ], [ -24832, %32 ]
  ret i32 %.0
}